; Function Attrs: nounwind uwtable
define i32 @openblas_setaffinity(i32 noundef %0, i64 noundef %1, ptr noundef %2) local_unnamed_addr #0 {
  %4 = tail call i32 @openblas_get_num_threads() #10
  %5 = icmp sgt i32 %0, -1
  %.not = icmp slt i32 %0, %4
  %or.cond = select i1 %5, i1 %.not, i1 false
  br i1 %or.cond, label %8, label %6

6:                                                ; preds = %3
  %7 = tail call ptr @__errno_location() #11
  store i32 22, ptr %7, align 4, !tbaa !3
  br label %20

8:                                                ; preds = %3
  %9 = add nsw i32 %4, -1
  %10 = icmp eq i32 %0, %9
  br i1 %10, label %11, label %13

11:                                               ; preds = %8
  %12 = tail call i64 @pthread_self() #11
  br label %17

13:                                               ; preds = %8
  %14 = zext nneg i32 %0 to i64
  %15 = getelementptr inbounds nuw [16 x i64], ptr @blas_threads, i64 0, i64 %14
  %16 = load i64, ptr %15, align 8, !tbaa !7
  br label %17

17:                                               ; preds = %13, %11
  %18 = phi i64 [ %12, %11 ], [ %16, %13 ]
  %19 = tail call i32 @pthread_setaffinity_np(i64 noundef %18, i64 noundef %1, ptr noundef %2) #10
  br label %20

20:                                               ; preds = %17, %6
  %.0 = phi i32 [ -1, %6 ], [ %19, %17 ]
  ret i32 %.0
}